target datalayout = "e-m:e-p270:32:32-p271:32:32-p272:64:64-i64:64-i128:128-f80:128-n8:16:32:64-S128"
target triple = "x86_64-pc-linux-gnu"

%struct._ct_dissector_info = type { ptr }
%struct._packet_info = type { ptr, ptr, i32, i32, %struct.nstime_t, %struct.nstime_t, %struct.nstime_t, i8, ptr, ptr, ptr, ptr, %struct._address, %struct._address, %struct._address, %struct._address, %struct._address, %struct._address, i32, ptr, i8, [3 x i8], %struct.anon, i32, i32, i32, i32, ptr, i8, ptr, ptr, i16, i16, i32, i32, i16, i32, i32, ptr, ptr, ptr, i8, i8, i16, i16, i16, i32, i16, i16, ptr, ptr, ptr, ptr, ptr, i32, i32 }
%struct.nstime_t = type { i64, i32 }
%struct._address = type { i32, i32, ptr, ptr }
%struct.anon = type { i8, [3 x i8] }
%struct._opensafety_packet_info = type { %struct._opensafety_packet_frame, i16, i16, i16, i16, i8, i8, i8, i8, i32, [6 x i8], i8, %struct._opensafety_packet_crc, %union.anon }
%struct._opensafety_packet_frame = type { i8, i16, i16, i32, i16, ptr }
%struct._opensafety_packet_crc = type { i8, i16, i16, i8, i8 }
%union.anon = type { ptr }
%struct._conversation_hash_t = type { ptr, ptr, ptr, i32 }

@opensafety_ct_dissector_info = internal global %struct._ct_dissector_info { ptr @opensafety_conv_get_filter_type }, align 8

; Function Attrs: inlinehint nounwind null_pointer_is_valid sspstrong uwtable
define internal void @clear_address(ptr noundef %0) #6 {
  %2 = alloca ptr, align 8
  store ptr %0, ptr %2, align 8
  %3 = load ptr, ptr %2, align 8
  %4 = getelementptr inbounds nuw %struct._address, ptr %3, i32 0, i32 0
  store i32 0, ptr %4, align 8
  %5 = load ptr, ptr %2, align 8
  %6 = getelementptr inbounds nuw %struct._address, ptr %5, i32 0, i32 1
  store i32 0, ptr %6, align 4
  %7 = load ptr, ptr %2, align 8
  %8 = getelementptr inbounds nuw %struct._address, ptr %7, i32 0, i32 2
  store ptr null, ptr %8, align 8
  %9 = load ptr, ptr %2, align 8
  %10 = getelementptr inbounds nuw %struct._address, ptr %9, i32 0, i32 3
  store ptr null, ptr %10, align 8
  ret void
}

; Function Attrs: inlinehint null_pointer_is_valid sspstrong uwtable
define internal void @alloc_address_wmem(ptr noundef %0, ptr noundef %1, i32 noundef %2, i32 noundef %3, ptr noundef %4) #10 {
  %6 = alloca ptr, align 8
  %7 = alloca ptr, align 8
  %8 = alloca i32, align 4
  %9 = alloca i32, align 4
  %10 = alloca ptr, align 8
  store ptr %0, ptr %6, align 8
  store ptr %1, ptr %7, align 8
  store i32 %2, ptr %8, align 4
  store i32 %3, ptr %9, align 4
  store ptr %4, ptr %10, align 8
  br label %11

11:                                               ; preds = %5
  br label %12

12:                                               ; preds = %11
  %13 = load ptr, ptr %7, align 8
  call void @clear_address(ptr noundef %13)
  %14 = load i32, ptr %8, align 4
  %15 = load ptr, ptr %7, align 8
  %16 = getelementptr inbounds nuw %struct._address, ptr %15, i32 0, i32 0
  store i32 %14, ptr %16, align 8
  %17 = load i32, ptr %9, align 4
  %18 = icmp eq i32 %17, 0
  br i1 %18, label %19, label %22

19:                                               ; preds = %12
  br label %20

20:                                               ; preds = %19
  br label %21

21:                                               ; preds = %20
  br label %39

22:                                               ; preds = %12
  br label %23

23:                                               ; preds = %22
  br label %24

24:                                               ; preds = %23
  br label %25

25:                                               ; preds = %24
  br label %26

26:                                               ; preds = %25
  %27 = load ptr, ptr %6, align 8
  %28 = load ptr, ptr %10, align 8
  %29 = load i32, ptr %9, align 4
  %30 = sext i32 %29 to i64
  %31 = call ptr @wmem_memdup(ptr noundef %27, ptr noundef %28, i64 noundef %30) #15
  %32 = load ptr, ptr %7, align 8
  %33 = getelementptr inbounds nuw %struct._address, ptr %32, i32 0, i32 3
  store ptr %31, ptr %33, align 8
  %34 = load ptr, ptr %7, align 8
  %35 = getelementptr inbounds nuw %struct._address, ptr %34, i32 0, i32 2
  store ptr %31, ptr %35, align 8
  %36 = load i32, ptr %9, align 4
  %37 = load ptr, ptr %7, align 8
  %38 = getelementptr inbounds nuw %struct._address, ptr %37, i32 0, i32 1
  store i32 %36, ptr %38, align 4
  br label %39

39:                                               ; preds = %26, %21
  ret void
}

; Function Attrs: null_pointer_is_valid sspstrong uwtable
define internal i32 @opensafety_conversation_packet(ptr noundef %0, ptr noundef %1, ptr noundef %2, ptr noundef %3, i32 noundef %4) #0 {
  %6 = alloca ptr, align 8
  %7 = alloca ptr, align 8
  %8 = alloca ptr, align 8
  %9 = alloca ptr, align 8
  %10 = alloca i32, align 4
  %11 = alloca ptr, align 8
  %12 = alloca ptr, align 8
  %13 = alloca ptr, align 8
  %14 = alloca ptr, align 8
  %15 = alloca i16, align 2
  %16 = alloca i16, align 2
  store ptr %0, ptr %6, align 8
  store ptr %1, ptr %7, align 8
  store ptr %2, ptr %8, align 8
  store ptr %3, ptr %9, align 8
  store i32 %4, ptr %10, align 4
  call void @llvm.lifetime.start.p0(i64 8, ptr %11) #12
  %17 = load ptr, ptr %7, align 8
  %18 = getelementptr inbounds nuw %struct._packet_info, ptr %17, i32 0, i32 51
  %19 = load ptr, ptr %18, align 8
  %20 = call noalias ptr @wmem_alloc0(ptr noundef %19, i64 noundef 24) #13
  store ptr %20, ptr %11, align 8
  call void @llvm.lifetime.start.p0(i64 8, ptr %12) #12
  %21 = load ptr, ptr %7, align 8
  %22 = getelementptr inbounds nuw %struct._packet_info, ptr %21, i32 0, i32 51
  %23 = load ptr, ptr %22, align 8
  %24 = call noalias ptr @wmem_alloc0(ptr noundef %23, i64 noundef 24) #13
  store ptr %24, ptr %12, align 8
  call void @llvm.lifetime.start.p0(i64 8, ptr %13) #12
  %25 = load ptr, ptr %6, align 8
  store ptr %25, ptr %13, align 8
  call void @llvm.lifetime.start.p0(i64 8, ptr %14) #12
  %26 = load ptr, ptr %9, align 8
  store ptr %26, ptr %14, align 8
  call void @llvm.lifetime.start.p0(i64 2, ptr %15) #12
  %27 = load ptr, ptr %14, align 8
  %28 = getelementptr inbounds nuw %struct._opensafety_packet_info, ptr %27, i32 0, i32 4
  %29 = load i16, ptr %28, align 2
  store i16 %29, ptr %15, align 2
  %30 = load ptr, ptr %14, align 8
  %31 = getelementptr inbounds nuw %struct._opensafety_packet_info, ptr %30, i32 0, i32 7
  %32 = load i8, ptr %31, align 2
  %33 = zext i8 %32 to i32
  %34 = icmp eq i32 %33, 192
  br i1 %34, label %35, label %36

35:                                               ; preds = %5
  store i16 1023, ptr %15, align 2
  br label %36

36:                                               ; preds = %35, %5
  call void @llvm.lifetime.start.p0(i64 2, ptr %16) #12
  %37 = load ptr, ptr %14, align 8
  %38 = getelementptr inbounds nuw %struct._opensafety_packet_info, ptr %37, i32 0, i32 3
  %39 = load i16, ptr %38, align 4
  store i16 %39, ptr %16, align 2
  %40 = load i32, ptr %10, align 4
  %41 = load ptr, ptr %13, align 8
  %42 = getelementptr inbounds nuw %struct._conversation_hash_t, ptr %41, i32 0, i32 3
  store i32 %40, ptr %42, align 8
  %43 = load ptr, ptr %7, align 8
  %44 = getelementptr inbounds nuw %struct._packet_info, ptr %43, i32 0, i32 51
  %45 = load ptr, ptr %44, align 8
  %46 = load ptr, ptr %11, align 8
  call void @alloc_address_wmem(ptr noundef %45, ptr noundef %46, i32 noundef 12, i32 noundef 2, ptr noundef %16)
  %47 = load ptr, ptr %7, align 8
  %48 = getelementptr inbounds nuw %struct._packet_info, ptr %47, i32 0, i32 51
  %49 = load ptr, ptr %48, align 8
  %50 = load ptr, ptr %12, align 8
  call void @alloc_address_wmem(ptr noundef %49, ptr noundef %50, i32 noundef 12, i32 noundef 2, ptr noundef %15)
  %51 = load ptr, ptr %13, align 8
  %52 = load ptr, ptr %11, align 8
  %53 = load ptr, ptr %12, align 8
  %54 = load ptr, ptr %14, align 8
  %55 = getelementptr inbounds nuw %struct._opensafety_packet_info, ptr %54, i32 0, i32 8
  %56 = load i8, ptr %55, align 1
  %57 = zext i8 %56 to i32
  %58 = load ptr, ptr %7, align 8
  %59 = getelementptr inbounds nuw %struct._packet_info, ptr %58, i32 0, i32 5
  %60 = load ptr, ptr %7, align 8
  %61 = getelementptr inbounds nuw %struct._packet_info, ptr %60, i32 0, i32 4
  call void @add_conversation_table_data(ptr noundef %51, ptr noundef %52, ptr noundef %53, i32 noundef 0, i32 noundef 0, i32 noundef 1, i32 noundef %57, ptr noundef %59, ptr noundef %61, ptr noundef @opensafety_ct_dissector_info, i32 noundef 0)
  call void @llvm.lifetime.end.p0(i64 2, ptr %16) #12
  call void @llvm.lifetime.end.p0(i64 2, ptr %15) #12
  call void @llvm.lifetime.end.p0(i64 8, ptr %14) #12
  call void @llvm.lifetime.end.p0(i64 8, ptr %13) #12
  call void @llvm.lifetime.end.p0(i64 8, ptr %12) #12
  call void @llvm.lifetime.end.p0(i64 8, ptr %11) #12
  ret i32 1
}