; Function Attrs: null_pointer_is_valid sspstrong uwtable
define internal noundef i32 @opensafety_conversation_packet(ptr noundef initializes((24, 28)) %0, ptr noundef %1, ptr readnone captures(none) %2, ptr noundef readonly captures(none) %3, i32 noundef %4) #0 {
  %6 = alloca i16, align 2
  %7 = alloca i16, align 2
  %8 = getelementptr inbounds nuw i8, ptr %1, i64 408
  %9 = load ptr, ptr %8, align 8
  %10 = tail call noalias dereferenceable_or_null(24) ptr @wmem_alloc0(ptr noundef %9, i64 noundef 24) #13
  %11 = load ptr, ptr %8, align 8
  %12 = tail call noalias dereferenceable_or_null(24) ptr @wmem_alloc0(ptr noundef %11, i64 noundef 24) #13
  call void @llvm.lifetime.start.p0(i64 2, ptr nonnull %6) #12
  %13 = getelementptr inbounds nuw i8, ptr %3, i64 30
  %14 = load i16, ptr %13, align 2
  %15 = getelementptr inbounds nuw i8, ptr %3, i64 34
  %16 = load i8, ptr %15, align 2
  %17 = icmp eq i8 %16, -64
  %spec.store.select = select i1 %17, i16 1023, i16 %14
  store i16 %spec.store.select, ptr %6, align 2
  call void @llvm.lifetime.start.p0(i64 2, ptr nonnull %7) #12
  %18 = getelementptr inbounds nuw i8, ptr %3, i64 28
  %19 = load i16, ptr %18, align 4
  store i16 %19, ptr %7, align 2
  %20 = getelementptr inbounds nuw i8, ptr %0, i64 24
  store i32 %4, ptr %20, align 8
  %21 = load ptr, ptr %8, align 8
  tail call void @llvm.memset.p0.i64(ptr noundef align 8 dereferenceable(24) %10, i8 0, i64 24, i1 false)
  store i32 12, ptr %10, align 8
  %22 = call dereferenceable_or_null(2) ptr @wmem_memdup(ptr noundef %21, ptr noundef nonnull %7, i64 noundef 2) #14
  %23 = getelementptr inbounds nuw i8, ptr %10, i64 16
  store ptr %22, ptr %23, align 8
  %24 = getelementptr inbounds nuw i8, ptr %10, i64 8
  store ptr %22, ptr %24, align 8
  %25 = getelementptr inbounds nuw i8, ptr %10, i64 4
  store i32 2, ptr %25, align 4
  %26 = load ptr, ptr %8, align 8
  call void @llvm.memset.p0.i64(ptr noundef align 8 dereferenceable(24) %12, i8 0, i64 24, i1 false)
  store i32 12, ptr %12, align 8
  %27 = call dereferenceable_or_null(2) ptr @wmem_memdup(ptr noundef %26, ptr noundef nonnull %6, i64 noundef 2) #14
  %28 = getelementptr inbounds nuw i8, ptr %12, i64 16
  store ptr %27, ptr %28, align 8
  %29 = getelementptr inbounds nuw i8, ptr %12, i64 8
  store ptr %27, ptr %29, align 8
  %30 = getelementptr inbounds nuw i8, ptr %12, i64 4
  store i32 2, ptr %30, align 4
  %31 = getelementptr inbounds nuw i8, ptr %3, i64 35
  %32 = load i8, ptr %31, align 1
  %33 = zext i8 %32 to i32
  %34 = getelementptr inbounds nuw i8, ptr %1, i64 40
  %35 = getelementptr inbounds nuw i8, ptr %1, i64 24
  call void @add_conversation_table_data(ptr noundef %0, ptr noundef %10, ptr noundef %12, i32 noundef 0, i32 noundef 0, i32 noundef 1, i32 noundef %33, ptr noundef nonnull %34, ptr noundef nonnull %35, ptr noundef nonnull @opensafety_ct_dissector_info, i32 noundef 0)
  call void @llvm.lifetime.end.p0(i64 2, ptr nonnull %7) #12
  call void @llvm.lifetime.end.p0(i64 2, ptr nonnull %6) #12
  ret i32 1
}